target datalayout = "e-m:e-p270:32:32-p271:32:32-p272:64:64-i64:64-i128:128-f80:128-n8:16:32:64-S128"
target triple = "x86_64-pc-linux-gnu"

%struct.JNINativeInterface_ = type { ptr, ptr, ptr, ptr, ptr, ptr, ptr, ptr, ptr, ptr, ptr, ptr, ptr, ptr, ptr, ptr, ptr, ptr, ptr, ptr, ptr, ptr, ptr, ptr, ptr, ptr, ptr, ptr, ptr, ptr, ptr, ptr, ptr, ptr, ptr, ptr, ptr, ptr, ptr, ptr, ptr, ptr, ptr, ptr, ptr, ptr, ptr, ptr, ptr, ptr, ptr, ptr, ptr, ptr, ptr, ptr, ptr, ptr, ptr, ptr, ptr, ptr, ptr, ptr, ptr, ptr, ptr, ptr, ptr, ptr, ptr, ptr, ptr, ptr, ptr, ptr, ptr, ptr, ptr, ptr, ptr, ptr, ptr, ptr, ptr, ptr, ptr, ptr, ptr, ptr, ptr, ptr, ptr, ptr, ptr, ptr, ptr, ptr, ptr, ptr, ptr, ptr, ptr, ptr, ptr, ptr, ptr, ptr, ptr, ptr, ptr, ptr, ptr, ptr, ptr, ptr, ptr, ptr, ptr, ptr, ptr, ptr, ptr, ptr, ptr, ptr, ptr, ptr, ptr, ptr, ptr, ptr, ptr, ptr, ptr, ptr, ptr, ptr, ptr, ptr, ptr, ptr, ptr, ptr, ptr, ptr, ptr, ptr, ptr, ptr, ptr, ptr, ptr, ptr, ptr, ptr, ptr, ptr, ptr, ptr, ptr, ptr, ptr, ptr, ptr, ptr, ptr, ptr, ptr, ptr, ptr, ptr, ptr, ptr, ptr, ptr, ptr, ptr, ptr, ptr, ptr, ptr, ptr, ptr, ptr, ptr, ptr, ptr, ptr, ptr, ptr, ptr, ptr, ptr, ptr, ptr, ptr, ptr, ptr, ptr, ptr, ptr, ptr, ptr, ptr, ptr, ptr, ptr, ptr, ptr, ptr, ptr, ptr, ptr, ptr, ptr, ptr, ptr, ptr, ptr, ptr, ptr, ptr, ptr, ptr, ptr, ptr, ptr, ptr, ptr, ptr, ptr, ptr, ptr, ptr }

@.str = private unnamed_addr constant [32 x i8] c"sun/java2d/InvalidPipeException\00", align 1
@pInvalidPipeClass = internal global ptr null, align 8
@.str.1 = private unnamed_addr constant [27 x i8] c"sun/java2d/NullSurfaceData\00", align 1
@pNullSurfaceDataClass = internal global ptr null, align 8
@.str.2 = private unnamed_addr constant [6 x i8] c"pData\00", align 1
@.str.3 = private unnamed_addr constant [2 x i8] c"J\00", align 1
@pDataID = internal global ptr null, align 8
@.str.4 = private unnamed_addr constant [6 x i8] c"valid\00", align 1
@.str.5 = private unnamed_addr constant [2 x i8] c"Z\00", align 1
@validID = hidden global ptr null, align 8
@.str.6 = private unnamed_addr constant [31 x i8] c"java/awt/image/IndexColorModel\00", align 1
@.str.7 = private unnamed_addr constant [14 x i8] c"allgrayopaque\00", align 1
@allGrayID = internal global ptr null, align 8

; Function Attrs: nounwind uwtable
define void @Java_sun_java2d_SurfaceData_initIDs(ptr noundef %0, ptr noundef %1) #0 {
  %3 = alloca ptr, align 8
  %4 = alloca ptr, align 8
  %5 = alloca ptr, align 8
  %6 = alloca ptr, align 8
  %7 = alloca ptr, align 8
  store ptr %0, ptr %3, align 8
  store ptr %1, ptr %4, align 8
  br label %8

8:                                                ; preds = %2
  br label %9

9:                                                ; preds = %8
  %10 = load ptr, ptr %3, align 8
  %11 = load ptr, ptr %10, align 8
  %12 = getelementptr inbounds %struct.JNINativeInterface_, ptr %11, i32 0, i32 6
  %13 = load ptr, ptr %12, align 8
  %14 = load ptr, ptr %3, align 8
  %15 = call ptr %13(ptr noundef %14, ptr noundef @.str)
  store ptr %15, ptr %6, align 8
  %16 = load ptr, ptr %6, align 8
  %17 = icmp eq ptr %16, null
  br i1 %17, label %18, label %19

18:                                               ; preds = %9
  br label %108

19:                                               ; preds = %9
  br label %20

20:                                               ; preds = %19
  %21 = load ptr, ptr %3, align 8
  %22 = load ptr, ptr %21, align 8
  %23 = getelementptr inbounds %struct.JNINativeInterface_, ptr %22, i32 0, i32 21
  %24 = load ptr, ptr %23, align 8
  %25 = load ptr, ptr %3, align 8
  %26 = load ptr, ptr %6, align 8
  %27 = call ptr %24(ptr noundef %25, ptr noundef %26)
  store ptr %27, ptr @pInvalidPipeClass, align 8
  %28 = load ptr, ptr @pInvalidPipeClass, align 8
  %29 = icmp eq ptr %28, null
  br i1 %29, label %30, label %31

30:                                               ; preds = %20
  br label %108

31:                                               ; preds = %20
  br label %32

32:                                               ; preds = %31
  br label %33

33:                                               ; preds = %32
  br label %34

34:                                               ; preds = %33
  %35 = load ptr, ptr %3, align 8
  %36 = load ptr, ptr %35, align 8
  %37 = getelementptr inbounds %struct.JNINativeInterface_, ptr %36, i32 0, i32 6
  %38 = load ptr, ptr %37, align 8
  %39 = load ptr, ptr %3, align 8
  %40 = call ptr %38(ptr noundef %39, ptr noundef @.str.1)
  store ptr %40, ptr %7, align 8
  %41 = load ptr, ptr %7, align 8
  %42 = icmp eq ptr %41, null
  br i1 %42, label %43, label %44

43:                                               ; preds = %34
  br label %108

44:                                               ; preds = %34
  br label %45

45:                                               ; preds = %44
  %46 = load ptr, ptr %3, align 8
  %47 = load ptr, ptr %46, align 8
  %48 = getelementptr inbounds %struct.JNINativeInterface_, ptr %47, i32 0, i32 21
  %49 = load ptr, ptr %48, align 8
  %50 = load ptr, ptr %3, align 8
  %51 = load ptr, ptr %7, align 8
  %52 = call ptr %49(ptr noundef %50, ptr noundef %51)
  store ptr %52, ptr @pNullSurfaceDataClass, align 8
  %53 = load ptr, ptr @pNullSurfaceDataClass, align 8
  %54 = icmp eq ptr %53, null
  br i1 %54, label %55, label %56

55:                                               ; preds = %45
  br label %108

56:                                               ; preds = %45
  br label %57

57:                                               ; preds = %56
  br label %58

58:                                               ; preds = %57
  %59 = load ptr, ptr %3, align 8
  %60 = load ptr, ptr %59, align 8
  %61 = getelementptr inbounds %struct.JNINativeInterface_, ptr %60, i32 0, i32 94
  %62 = load ptr, ptr %61, align 8
  %63 = load ptr, ptr %3, align 8
  %64 = load ptr, ptr %4, align 8
  %65 = call ptr %62(ptr noundef %63, ptr noundef %64, ptr noundef @.str.2, ptr noundef @.str.3)
  store ptr %65, ptr @pDataID, align 8
  %66 = load ptr, ptr @pDataID, align 8
  %67 = icmp eq ptr %66, null
  br i1 %67, label %68, label %69

68:                                               ; preds = %58
  br label %108

69:                                               ; preds = %58
  br label %70

70:                                               ; preds = %69
  br label %71

71:                                               ; preds = %70
  %72 = load ptr, ptr %3, align 8
  %73 = load ptr, ptr %72, align 8
  %74 = getelementptr inbounds %struct.JNINativeInterface_, ptr %73, i32 0, i32 94
  %75 = load ptr, ptr %74, align 8
  %76 = load ptr, ptr %3, align 8
  %77 = load ptr, ptr %4, align 8
  %78 = call ptr %75(ptr noundef %76, ptr noundef %77, ptr noundef @.str.4, ptr noundef @.str.5)
  store ptr %78, ptr @validID, align 8
  %79 = load ptr, ptr @validID, align 8
  %80 = icmp eq ptr %79, null
  br i1 %80, label %81, label %82

81:                                               ; preds = %71
  br label %108

82:                                               ; preds = %71
  br label %83

83:                                               ; preds = %82
  br label %84

84:                                               ; preds = %83
  %85 = load ptr, ptr %3, align 8
  %86 = load ptr, ptr %85, align 8
  %87 = getelementptr inbounds %struct.JNINativeInterface_, ptr %86, i32 0, i32 6
  %88 = load ptr, ptr %87, align 8
  %89 = load ptr, ptr %3, align 8
  %90 = call ptr %88(ptr noundef %89, ptr noundef @.str.6)
  store ptr %90, ptr %5, align 8
  %91 = load ptr, ptr %5, align 8
  %92 = icmp eq ptr %91, null
  br i1 %92, label %93, label %94

93:                                               ; preds = %84
  br label %108

94:                                               ; preds = %84
  br label %95

95:                                               ; preds = %94
  br label %96

96:                                               ; preds = %95
  %97 = load ptr, ptr %3, align 8
  %98 = load ptr, ptr %97, align 8
  %99 = getelementptr inbounds %struct.JNINativeInterface_, ptr %98, i32 0, i32 94
  %100 = load ptr, ptr %99, align 8
  %101 = load ptr, ptr %3, align 8
  %102 = load ptr, ptr %5, align 8
  %103 = call ptr %100(ptr noundef %101, ptr noundef %102, ptr noundef @.str.7, ptr noundef @.str.5)
  store ptr %103, ptr @allGrayID, align 8
  %104 = load ptr, ptr @allGrayID, align 8
  %105 = icmp eq ptr %104, null
  br i1 %105, label %106, label %107

106:                                              ; preds = %96
  br label %108

107:                                              ; preds = %96
  br label %108

108:                                              ; preds = %107, %106, %93, %81, %68, %55, %43, %30, %18
  ret void
}