; Function Attrs: nounwind uwtable
define void @Java_sun_java2d_SurfaceData_initIDs(ptr noundef %0, ptr noundef %1) local_unnamed_addr #0 {
  %3 = load ptr, ptr %0, align 8
  %4 = getelementptr inbounds i8, ptr %3, i64 48
  %5 = load ptr, ptr %4, align 8
  %6 = tail call ptr %5(ptr noundef nonnull %0, ptr noundef nonnull @.str) #7
  %7 = icmp eq ptr %6, null
  br i1 %7, label %49, label %8

8:                                                ; preds = %2
  %9 = load ptr, ptr %0, align 8
  %10 = getelementptr inbounds i8, ptr %9, i64 168
  %11 = load ptr, ptr %10, align 8
  %12 = tail call ptr %11(ptr noundef nonnull %0, ptr noundef nonnull %6) #7
  store ptr %12, ptr @pInvalidPipeClass, align 8
  %13 = icmp eq ptr %12, null
  br i1 %13, label %49, label %14

14:                                               ; preds = %8
  %15 = load ptr, ptr %0, align 8
  %16 = getelementptr inbounds i8, ptr %15, i64 48
  %17 = load ptr, ptr %16, align 8
  %18 = tail call ptr %17(ptr noundef nonnull %0, ptr noundef nonnull @.str.1) #7
  %19 = icmp eq ptr %18, null
  br i1 %19, label %49, label %20

20:                                               ; preds = %14
  %21 = load ptr, ptr %0, align 8
  %22 = getelementptr inbounds i8, ptr %21, i64 168
  %23 = load ptr, ptr %22, align 8
  %24 = tail call ptr %23(ptr noundef nonnull %0, ptr noundef nonnull %18) #7
  store ptr %24, ptr @pNullSurfaceDataClass, align 8
  %25 = icmp eq ptr %24, null
  br i1 %25, label %49, label %26

26:                                               ; preds = %20
  %27 = load ptr, ptr %0, align 8
  %28 = getelementptr inbounds i8, ptr %27, i64 752
  %29 = load ptr, ptr %28, align 8
  %30 = tail call ptr %29(ptr noundef nonnull %0, ptr noundef %1, ptr noundef nonnull @.str.2, ptr noundef nonnull @.str.3) #7
  store ptr %30, ptr @pDataID, align 8
  %31 = icmp eq ptr %30, null
  br i1 %31, label %49, label %32

32:                                               ; preds = %26
  %33 = load ptr, ptr %0, align 8
  %34 = getelementptr inbounds i8, ptr %33, i64 752
  %35 = load ptr, ptr %34, align 8
  %36 = tail call ptr %35(ptr noundef nonnull %0, ptr noundef %1, ptr noundef nonnull @.str.4, ptr noundef nonnull @.str.5) #7
  store ptr %36, ptr @validID, align 8
  %37 = icmp eq ptr %36, null
  br i1 %37, label %49, label %38

38:                                               ; preds = %32
  %39 = load ptr, ptr %0, align 8
  %40 = getelementptr inbounds i8, ptr %39, i64 48
  %41 = load ptr, ptr %40, align 8
  %42 = tail call ptr %41(ptr noundef nonnull %0, ptr noundef nonnull @.str.6) #7
  %43 = icmp eq ptr %42, null
  br i1 %43, label %49, label %44

44:                                               ; preds = %38
  %45 = load ptr, ptr %0, align 8
  %46 = getelementptr inbounds i8, ptr %45, i64 752
  %47 = load ptr, ptr %46, align 8
  %48 = tail call ptr %47(ptr noundef nonnull %0, ptr noundef nonnull %42, ptr noundef nonnull @.str.7, ptr noundef nonnull @.str.5) #7
  store ptr %48, ptr @allGrayID, align 8
  br label %49

49:                                               ; preds = %44, %38, %32, %26, %20, %14, %8, %2
  ret void
}